target datalayout = "e-m:e-p270:32:32-p271:32:32-p272:64:64-i64:64-i128:128-f80:128-n8:16:32:64-S128"
target triple = "x86_64-pc-linux-gnu"

%struct.jpeg_compress_struct = type { ptr, ptr, ptr, ptr, i32, i32, ptr, i32, i32, i32, i32, double, i32, i32, i32, ptr, [4 x ptr], [4 x ptr], [4 x ptr], [16 x i8], [16 x i8], [16 x i8], i32, ptr, i32, i32, i32, i32, i32, i32, i32, i32, i32, i8, i8, i8, i16, i16, i32, i32, i32, i32, i32, i32, i32, [4 x ptr], i32, i32, i32, [10 x i32], i32, i32, i32, i32, ptr, ptr, ptr, ptr, ptr, ptr, ptr, ptr, ptr, ptr, i32 }
%struct.jpeg_memory_mgr = type { ptr, ptr, ptr, ptr, ptr, ptr, ptr, ptr, ptr, ptr, ptr, i64, i64 }
%struct.my_color_converter = type { %struct.jpeg_color_converter, ptr }
%struct.jpeg_color_converter = type { ptr, ptr, ptr, ptr }

; Function Attrs: nounwind uwtable
define internal void @rgb_ycc_start(ptr noundef %0) #0 {
  %2 = alloca ptr, align 8
  %3 = alloca ptr, align 8
  %4 = alloca ptr, align 8
  %5 = alloca i64, align 8
  store ptr %0, ptr %2, align 8, !tbaa !3
  call void @llvm.lifetime.start.p0(i64 8, ptr %3) #4
  %6 = load ptr, ptr %2, align 8, !tbaa !3
  %7 = getelementptr inbounds nuw %struct.jpeg_compress_struct, ptr %6, i32 0, i32 59
  %8 = load ptr, ptr %7, align 8, !tbaa !40
  store ptr %8, ptr %3, align 8, !tbaa !39
  call void @llvm.lifetime.start.p0(i64 8, ptr %4) #4
  call void @llvm.lifetime.start.p0(i64 8, ptr %5) #4
  %9 = load ptr, ptr %2, align 8, !tbaa !3
  %10 = getelementptr inbounds nuw %struct.jpeg_compress_struct, ptr %9, i32 0, i32 1
  %11 = load ptr, ptr %10, align 8, !tbaa !36
  %12 = getelementptr inbounds nuw %struct.jpeg_memory_mgr, ptr %11, i32 0, i32 0
  %13 = load ptr, ptr %12, align 8, !tbaa !37
  %14 = load ptr, ptr %2, align 8, !tbaa !3
  %15 = call ptr %13(ptr noundef %14, i32 noundef 1, i64 noundef 16384)
  store ptr %15, ptr %4, align 8, !tbaa !60
  %16 = load ptr, ptr %3, align 8, !tbaa !39
  %17 = getelementptr inbounds nuw %struct.my_color_converter, ptr %16, i32 0, i32 1
  store ptr %15, ptr %17, align 8, !tbaa !61
  store i64 0, ptr %5, align 8, !tbaa !62
  br label %18

18:                                               ; preds = %74, %1
  %19 = load i64, ptr %5, align 8, !tbaa !62
  %20 = icmp sle i64 %19, 255
  br i1 %20, label %21, label %77

21:                                               ; preds = %18
  %22 = load i64, ptr %5, align 8, !tbaa !62
  %23 = mul nsw i64 19595, %22
  %24 = load ptr, ptr %4, align 8, !tbaa !60
  %25 = load i64, ptr %5, align 8, !tbaa !62
  %26 = add nsw i64 %25, 0
  %27 = getelementptr inbounds i64, ptr %24, i64 %26
  store i64 %23, ptr %27, align 8, !tbaa !62
  %28 = load i64, ptr %5, align 8, !tbaa !62
  %29 = mul nsw i64 38470, %28
  %30 = load ptr, ptr %4, align 8, !tbaa !60
  %31 = load i64, ptr %5, align 8, !tbaa !62
  %32 = add nsw i64 %31, 256
  %33 = getelementptr inbounds i64, ptr %30, i64 %32
  store i64 %29, ptr %33, align 8, !tbaa !62
  %34 = load i64, ptr %5, align 8, !tbaa !62
  %35 = mul nsw i64 7471, %34
  %36 = add nsw i64 %35, 32768
  %37 = load ptr, ptr %4, align 8, !tbaa !60
  %38 = load i64, ptr %5, align 8, !tbaa !62
  %39 = add nsw i64 %38, 512
  %40 = getelementptr inbounds i64, ptr %37, i64 %39
  store i64 %36, ptr %40, align 8, !tbaa !62
  %41 = load i64, ptr %5, align 8, !tbaa !62
  %42 = mul nsw i64 -11059, %41
  %43 = load ptr, ptr %4, align 8, !tbaa !60
  %44 = load i64, ptr %5, align 8, !tbaa !62
  %45 = add nsw i64 %44, 768
  %46 = getelementptr inbounds i64, ptr %43, i64 %45
  store i64 %42, ptr %46, align 8, !tbaa !62
  %47 = load i64, ptr %5, align 8, !tbaa !62
  %48 = mul nsw i64 -21709, %47
  %49 = load ptr, ptr %4, align 8, !tbaa !60
  %50 = load i64, ptr %5, align 8, !tbaa !62
  %51 = add nsw i64 %50, 1024
  %52 = getelementptr inbounds i64, ptr %49, i64 %51
  store i64 %48, ptr %52, align 8, !tbaa !62
  %53 = load i64, ptr %5, align 8, !tbaa !62
  %54 = mul nsw i64 32768, %53
  %55 = add nsw i64 %54, 8388608
  %56 = add nsw i64 %55, 32768
  %57 = sub nsw i64 %56, 1
  %58 = load ptr, ptr %4, align 8, !tbaa !60
  %59 = load i64, ptr %5, align 8, !tbaa !62
  %60 = add nsw i64 %59, 1280
  %61 = getelementptr inbounds i64, ptr %58, i64 %60
  store i64 %57, ptr %61, align 8, !tbaa !62
  %62 = load i64, ptr %5, align 8, !tbaa !62
  %63 = mul nsw i64 -27439, %62
  %64 = load ptr, ptr %4, align 8, !tbaa !60
  %65 = load i64, ptr %5, align 8, !tbaa !62
  %66 = add nsw i64 %65, 1536
  %67 = getelementptr inbounds i64, ptr %64, i64 %66
  store i64 %63, ptr %67, align 8, !tbaa !62
  %68 = load i64, ptr %5, align 8, !tbaa !62
  %69 = mul nsw i64 -5329, %68
  %70 = load ptr, ptr %4, align 8, !tbaa !60
  %71 = load i64, ptr %5, align 8, !tbaa !62
  %72 = add nsw i64 %71, 1792
  %73 = getelementptr inbounds i64, ptr %70, i64 %72
  store i64 %69, ptr %73, align 8, !tbaa !62
  br label %74

74:                                               ; preds = %21
  %75 = load i64, ptr %5, align 8, !tbaa !62
  %76 = add nsw i64 %75, 1
  store i64 %76, ptr %5, align 8, !tbaa !62
  br label %18, !llvm.loop !63

77:                                               ; preds = %18
  call void @llvm.lifetime.end.p0(i64 8, ptr %5) #4
  call void @llvm.lifetime.end.p0(i64 8, ptr %4) #4
  call void @llvm.lifetime.end.p0(i64 8, ptr %3) #4
  ret void
}