; Function Attrs: nounwind uwtable
define internal void @rgb_ycc_start(ptr noundef %0) #0 {
  %2 = getelementptr inbounds nuw i8, ptr %0, i64 472
  %3 = load ptr, ptr %2, align 8, !tbaa !37
  %4 = getelementptr inbounds nuw i8, ptr %0, i64 8
  %5 = load ptr, ptr %4, align 8, !tbaa !34
  %6 = load ptr, ptr %5, align 8, !tbaa !35
  %7 = tail call ptr %6(ptr noundef %0, i32 noundef 1, i64 noundef 16384) #4
  %8 = getelementptr inbounds nuw i8, ptr %3, i64 32
  store ptr %7, ptr %8, align 8, !tbaa !55
  br label %9

9:                                                ; preds = %1, %9
  %.029 = phi i64 [ 0, %1 ], [ %35, %9 ]
  %10 = mul nuw nsw i64 %.029, 19595
  %11 = getelementptr inbounds nuw i64, ptr %7, i64 %.029
  store i64 %10, ptr %11, align 8, !tbaa !56
  %12 = mul nuw nsw i64 %.029, 38470
  %13 = or disjoint i64 %.029, 256
  %14 = getelementptr inbounds nuw i64, ptr %7, i64 %13
  store i64 %12, ptr %14, align 8, !tbaa !56
  %15 = mul nuw nsw i64 %.029, 7471
  %16 = add nuw nsw i64 %15, 32768
  %17 = or disjoint i64 %.029, 512
  %18 = getelementptr inbounds nuw i64, ptr %7, i64 %17
  store i64 %16, ptr %18, align 8, !tbaa !56
  %19 = mul nsw i64 %.029, -11059
  %20 = or disjoint i64 %.029, 768
  %21 = getelementptr inbounds nuw i64, ptr %7, i64 %20
  store i64 %19, ptr %21, align 8, !tbaa !56
  %22 = mul nsw i64 %.029, -21709
  %23 = or disjoint i64 %.029, 1024
  %24 = getelementptr inbounds nuw i64, ptr %7, i64 %23
  store i64 %22, ptr %24, align 8, !tbaa !56
  %25 = shl nuw nsw i64 %.029, 15
  %26 = add nuw nsw i64 %25, 8421375
  %27 = or disjoint i64 %.029, 1280
  %28 = getelementptr inbounds nuw i64, ptr %7, i64 %27
  store i64 %26, ptr %28, align 8, !tbaa !56
  %29 = mul nsw i64 %.029, -27439
  %30 = or disjoint i64 %.029, 1536
  %31 = getelementptr inbounds nuw i64, ptr %7, i64 %30
  store i64 %29, ptr %31, align 8, !tbaa !56
  %32 = mul nsw i64 %.029, -5329
  %33 = or disjoint i64 %.029, 1792
  %34 = getelementptr inbounds nuw i64, ptr %7, i64 %33
  store i64 %32, ptr %34, align 8, !tbaa !56
  %35 = add nuw nsw i64 %.029, 1
  %exitcond.not = icmp eq i64 %35, 256
  br i1 %exitcond.not, label %36, label %9, !llvm.loop !57

36:                                               ; preds = %9
  ret void
}